target datalayout = "e-m:e-p270:32:32-p271:32:32-p272:64:64-i64:64-i128:128-f80:128-n8:16:32:64-S128"
target triple = "x86_64-pc-linux-gnu"

%"class.dap::Deserializer" = type { ptr }
%"struct.dap::json::JsonCppDeserializer" = type <{ %"class.dap::Deserializer", ptr, i8, [7 x i8] }>
%"class.dap::boolean" = type { i8 }

; Function Attrs: mustprogress nounwind uwtable
define linkonce_odr dso_local noundef nonnull align 1 dereferenceable(1) ptr @_ZN3dap7booleanaSEb(ptr noundef nonnull align 1 dereferenceable(1) %0, i1 noundef zeroext %1) #1 comdat align 2 {
  %3 = alloca ptr, align 8
  %4 = alloca i8, align 1
  store ptr %0, ptr %3, align 8
  %5 = zext i1 %1 to i8
  store i8 %5, ptr %4, align 1
  %6 = load ptr, ptr %3, align 8
  %7 = load i8, ptr %4, align 1
  %8 = trunc i8 %7 to i1
  %9 = getelementptr inbounds %"class.dap::boolean", ptr %6, i32 0, i32 0
  %10 = zext i1 %8 to i8
  store i8 %10, ptr %9, align 1
  ret ptr %6
}

; Function Attrs: mustprogress uwtable
define dso_local noundef zeroext i1 @_ZNK3dap4json19JsonCppDeserializer11deserializeEPNS_7booleanE(ptr noundef nonnull align 8 dereferenceable(17) %0, ptr noundef %1) unnamed_addr #0 align 2 {
  %3 = alloca i1, align 1
  %4 = alloca ptr, align 8
  %5 = alloca ptr, align 8
  store ptr %0, ptr %4, align 8
  store ptr %1, ptr %5, align 8
  %6 = load ptr, ptr %4, align 8
  %7 = getelementptr inbounds %"struct.dap::json::JsonCppDeserializer", ptr %6, i32 0, i32 1
  %8 = load ptr, ptr %7, align 8
  %9 = call noundef zeroext i1 @_ZNK4Json5Value6isBoolEv(ptr noundef nonnull align 8 dereferenceable(40) %8)
  br i1 %9, label %11, label %10

10:                                               ; preds = %2
  store i1 false, ptr %3, align 1
  br label %17

11:                                               ; preds = %2
  %12 = getelementptr inbounds %"struct.dap::json::JsonCppDeserializer", ptr %6, i32 0, i32 1
  %13 = load ptr, ptr %12, align 8
  %14 = call noundef zeroext i1 @_ZNK4Json5Value6asBoolEv(ptr noundef nonnull align 8 dereferenceable(40) %13)
  %15 = load ptr, ptr %5, align 8
  %16 = call noundef nonnull align 1 dereferenceable(1) ptr @_ZN3dap7booleanaSEb(ptr noundef nonnull align 1 dereferenceable(1) %15, i1 noundef zeroext %14)
  store i1 true, ptr %3, align 1
  br label %17

17:                                               ; preds = %11, %10
  %18 = load i1, ptr %3, align 1
  ret i1 %18
}